; Function Attrs: mustprogress uwtable
define dso_local void @_ZN11V3LexerBase9yyrestartEPSi(ptr noundef nonnull align 8 dereferenceable(732) %0, ptr noundef %1) unnamed_addr #4 align 2 {
  %.not = icmp eq ptr %1, null
  %3 = getelementptr inbounds i8, ptr %0, i64 48
  %spec.select = select i1 %.not, ptr %3, ptr %1
  %4 = load ptr, ptr %0, align 8
  %5 = getelementptr inbounds i8, ptr %4, i64 56
  %6 = load ptr, ptr %5, align 8
  tail call void %6(ptr noundef nonnull align 8 dereferenceable(732) %0, ptr noundef nonnull align 8 dereferenceable(16) %spec.select)
  ret void
}